target datalayout = "e-m:e-p270:32:32-p271:32:32-p272:64:64-i64:64-i128:128-f80:128-n8:16:32:64-S128"
target triple = "x86_64-pc-linux-gnu"

%struct.trigger_info_msg = type { i32, ptr }
%struct.trigger_info = type { i16, i32, i16, ptr, i32, i32, i16, i32, ptr }

; Function Attrs: nounwind uwtable
define internal void @_pack_trigger_msg(ptr noundef %0, ptr noundef %1, i16 noundef zeroext %2) #0 {
  %4 = alloca ptr, align 8
  %5 = alloca ptr, align 8
  %6 = alloca i16, align 2
  %7 = alloca i32, align 4
  %8 = alloca i32, align 4
  %9 = alloca i32, align 4
  store ptr %0, ptr %4, align 8
  store ptr %1, ptr %5, align 8
  store i16 %2, ptr %6, align 2
  call void @llvm.lifetime.start.p0(i64 4, ptr %7) #6
  %10 = load i16, ptr %6, align 2
  %11 = zext i16 %10 to i32
  %12 = icmp sge i32 %11, 10240
  br i1 %12, label %13, label %162

13:                                               ; preds = %3
  %14 = load ptr, ptr %4, align 8
  %15 = getelementptr inbounds nuw %struct.trigger_info_msg, ptr %14, i32 0, i32 0
  %16 = load i32, ptr %15, align 8
  %17 = load ptr, ptr %5, align 8
  call void @pack32(i32 noundef %16, ptr noundef %17)
  store i32 0, ptr %7, align 4
  br label %18

18:                                               ; preds = %158, %13
  %19 = load i32, ptr %7, align 4
  %20 = load ptr, ptr %4, align 8
  %21 = getelementptr inbounds nuw %struct.trigger_info_msg, ptr %20, i32 0, i32 0
  %22 = load i32, ptr %21, align 8
  %23 = icmp ult i32 %19, %22
  br i1 %23, label %24, label %161

24:                                               ; preds = %18
  %25 = load ptr, ptr %4, align 8
  %26 = getelementptr inbounds nuw %struct.trigger_info_msg, ptr %25, i32 0, i32 1
  %27 = load ptr, ptr %26, align 8
  %28 = load i32, ptr %7, align 4
  %29 = sext i32 %28 to i64
  %30 = getelementptr inbounds %struct.trigger_info, ptr %27, i64 %29
  %31 = getelementptr inbounds nuw %struct.trigger_info, ptr %30, i32 0, i32 0
  %32 = load i16, ptr %31, align 8
  %33 = load ptr, ptr %5, align 8
  call void @pack16(i16 noundef zeroext %32, ptr noundef %33)
  %34 = load ptr, ptr %4, align 8
  %35 = getelementptr inbounds nuw %struct.trigger_info_msg, ptr %34, i32 0, i32 1
  %36 = load ptr, ptr %35, align 8
  %37 = load i32, ptr %7, align 4
  %38 = sext i32 %37 to i64
  %39 = getelementptr inbounds %struct.trigger_info, ptr %36, i64 %38
  %40 = getelementptr inbounds nuw %struct.trigger_info, ptr %39, i32 0, i32 1
  %41 = load i32, ptr %40, align 4
  %42 = load ptr, ptr %5, align 8
  call void @pack32(i32 noundef %41, ptr noundef %42)
  %43 = load ptr, ptr %4, align 8
  %44 = getelementptr inbounds nuw %struct.trigger_info_msg, ptr %43, i32 0, i32 1
  %45 = load ptr, ptr %44, align 8
  %46 = load i32, ptr %7, align 4
  %47 = sext i32 %46 to i64
  %48 = getelementptr inbounds %struct.trigger_info, ptr %45, i64 %47
  %49 = getelementptr inbounds nuw %struct.trigger_info, ptr %48, i32 0, i32 2
  %50 = load i16, ptr %49, align 8
  %51 = load ptr, ptr %5, align 8
  call void @pack16(i16 noundef zeroext %50, ptr noundef %51)
  br label %52

52:                                               ; preds = %24
  call void @llvm.lifetime.start.p0(i64 4, ptr %8) #6
  store i32 0, ptr %8, align 4
  %53 = load ptr, ptr %4, align 8
  %54 = getelementptr inbounds nuw %struct.trigger_info_msg, ptr %53, i32 0, i32 1
  %55 = load ptr, ptr %54, align 8
  %56 = load i32, ptr %7, align 4
  %57 = sext i32 %56 to i64
  %58 = getelementptr inbounds %struct.trigger_info, ptr %55, i64 %57
  %59 = getelementptr inbounds nuw %struct.trigger_info, ptr %58, i32 0, i32 3
  %60 = load ptr, ptr %59, align 8
  %61 = icmp ne ptr %60, null
  br i1 %61, label %62, label %74

62:                                               ; preds = %52
  %63 = load ptr, ptr %4, align 8
  %64 = getelementptr inbounds nuw %struct.trigger_info_msg, ptr %63, i32 0, i32 1
  %65 = load ptr, ptr %64, align 8
  %66 = load i32, ptr %7, align 4
  %67 = sext i32 %66 to i64
  %68 = getelementptr inbounds %struct.trigger_info, ptr %65, i64 %67
  %69 = getelementptr inbounds nuw %struct.trigger_info, ptr %68, i32 0, i32 3
  %70 = load ptr, ptr %69, align 8
  %71 = call i64 @strlen(ptr noundef %70) #7
  %72 = trunc i64 %71 to i32
  %73 = add i32 %72, 1
  store i32 %73, ptr %8, align 4
  br label %74

74:                                               ; preds = %62, %52
  %75 = load ptr, ptr %4, align 8
  %76 = getelementptr inbounds nuw %struct.trigger_info_msg, ptr %75, i32 0, i32 1
  %77 = load ptr, ptr %76, align 8
  %78 = load i32, ptr %7, align 4
  %79 = sext i32 %78 to i64
  %80 = getelementptr inbounds %struct.trigger_info, ptr %77, i64 %79
  %81 = getelementptr inbounds nuw %struct.trigger_info, ptr %80, i32 0, i32 3
  %82 = load ptr, ptr %81, align 8
  %83 = load i32, ptr %8, align 4
  %84 = load ptr, ptr %5, align 8
  call void @packmem(ptr noundef %82, i32 noundef %83, ptr noundef %84)
  call void @llvm.lifetime.end.p0(i64 4, ptr %8) #6
  br label %85

85:                                               ; preds = %74
  br label %86

86:                                               ; preds = %85
  %87 = load ptr, ptr %4, align 8
  %88 = getelementptr inbounds nuw %struct.trigger_info_msg, ptr %87, i32 0, i32 1
  %89 = load ptr, ptr %88, align 8
  %90 = load i32, ptr %7, align 4
  %91 = sext i32 %90 to i64
  %92 = getelementptr inbounds %struct.trigger_info, ptr %89, i64 %91
  %93 = getelementptr inbounds nuw %struct.trigger_info, ptr %92, i32 0, i32 5
  %94 = load i32, ptr %93, align 4
  %95 = load ptr, ptr %5, align 8
  call void @pack32(i32 noundef %94, ptr noundef %95)
  %96 = load ptr, ptr %4, align 8
  %97 = getelementptr inbounds nuw %struct.trigger_info_msg, ptr %96, i32 0, i32 1
  %98 = load ptr, ptr %97, align 8
  %99 = load i32, ptr %7, align 4
  %100 = sext i32 %99 to i64
  %101 = getelementptr inbounds %struct.trigger_info, ptr %98, i64 %100
  %102 = getelementptr inbounds nuw %struct.trigger_info, ptr %101, i32 0, i32 4
  %103 = load i32, ptr %102, align 8
  %104 = load ptr, ptr %5, align 8
  call void @pack32(i32 noundef %103, ptr noundef %104)
  %105 = load ptr, ptr %4, align 8
  %106 = getelementptr inbounds nuw %struct.trigger_info_msg, ptr %105, i32 0, i32 1
  %107 = load ptr, ptr %106, align 8
  %108 = load i32, ptr %7, align 4
  %109 = sext i32 %108 to i64
  %110 = getelementptr inbounds %struct.trigger_info, ptr %107, i64 %109
  %111 = getelementptr inbounds nuw %struct.trigger_info, ptr %110, i32 0, i32 6
  %112 = load i16, ptr %111, align 8
  %113 = load ptr, ptr %5, align 8
  call void @pack16(i16 noundef zeroext %112, ptr noundef %113)
  %114 = load ptr, ptr %4, align 8
  %115 = getelementptr inbounds nuw %struct.trigger_info_msg, ptr %114, i32 0, i32 1
  %116 = load ptr, ptr %115, align 8
  %117 = load i32, ptr %7, align 4
  %118 = sext i32 %117 to i64
  %119 = getelementptr inbounds %struct.trigger_info, ptr %116, i64 %118
  %120 = getelementptr inbounds nuw %struct.trigger_info, ptr %119, i32 0, i32 7
  %121 = load i32, ptr %120, align 4
  %122 = load ptr, ptr %5, align 8
  call void @pack32(i32 noundef %121, ptr noundef %122)
  br label %123

123:                                              ; preds = %86
  call void @llvm.lifetime.start.p0(i64 4, ptr %9) #6
  store i32 0, ptr %9, align 4
  %124 = load ptr, ptr %4, align 8
  %125 = getelementptr inbounds nuw %struct.trigger_info_msg, ptr %124, i32 0, i32 1
  %126 = load ptr, ptr %125, align 8
  %127 = load i32, ptr %7, align 4
  %128 = sext i32 %127 to i64
  %129 = getelementptr inbounds %struct.trigger_info, ptr %126, i64 %128
  %130 = getelementptr inbounds nuw %struct.trigger_info, ptr %129, i32 0, i32 8
  %131 = load ptr, ptr %130, align 8
  %132 = icmp ne ptr %131, null
  br i1 %132, label %133, label %145

133:                                              ; preds = %123
  %134 = load ptr, ptr %4, align 8
  %135 = getelementptr inbounds nuw %struct.trigger_info_msg, ptr %134, i32 0, i32 1
  %136 = load ptr, ptr %135, align 8
  %137 = load i32, ptr %7, align 4
  %138 = sext i32 %137 to i64
  %139 = getelementptr inbounds %struct.trigger_info, ptr %136, i64 %138
  %140 = getelementptr inbounds nuw %struct.trigger_info, ptr %139, i32 0, i32 8
  %141 = load ptr, ptr %140, align 8
  %142 = call i64 @strlen(ptr noundef %141) #7
  %143 = trunc i64 %142 to i32
  %144 = add i32 %143, 1
  store i32 %144, ptr %9, align 4
  br label %145

145:                                              ; preds = %133, %123
  %146 = load ptr, ptr %4, align 8
  %147 = getelementptr inbounds nuw %struct.trigger_info_msg, ptr %146, i32 0, i32 1
  %148 = load ptr, ptr %147, align 8
  %149 = load i32, ptr %7, align 4
  %150 = sext i32 %149 to i64
  %151 = getelementptr inbounds %struct.trigger_info, ptr %148, i64 %150
  %152 = getelementptr inbounds nuw %struct.trigger_info, ptr %151, i32 0, i32 8
  %153 = load ptr, ptr %152, align 8
  %154 = load i32, ptr %9, align 4
  %155 = load ptr, ptr %5, align 8
  call void @packmem(ptr noundef %153, i32 noundef %154, ptr noundef %155)
  call void @llvm.lifetime.end.p0(i64 4, ptr %9) #6
  br label %156

156:                                              ; preds = %145
  br label %157

157:                                              ; preds = %156
  br label %158

158:                                              ; preds = %157
  %159 = load i32, ptr %7, align 4
  %160 = add nsw i32 %159, 1
  store i32 %160, ptr %7, align 4
  br label %18, !llvm.loop !53

161:                                              ; preds = %18
  br label %162

162:                                              ; preds = %161, %3
  call void @llvm.lifetime.end.p0(i64 4, ptr %7) #6
  ret void
}