; Function Attrs: nounwind uwtable
define internal fastcc void @_pack_trigger_msg(ptr noundef readonly captures(none) %0, ptr noundef %1, i16 noundef zeroext %2) unnamed_addr #0 {
  %4 = icmp ugt i16 %2, 10239
  br i1 %4, label %5, label %.loopexit

5:                                                ; preds = %3
  %6 = load i32, ptr %0, align 8
  tail call void @pack32(i32 noundef %6, ptr noundef %1) #7
  %7 = load i32, ptr %0, align 8
  %.not48 = icmp eq i32 %7, 0
  br i1 %.not48, label %.loopexit, label %.lr.ph

.lr.ph:                                           ; preds = %5
  %8 = getelementptr inbounds nuw i8, ptr %0, i64 8
  br label %9

9:                                                ; preds = %.lr.ph, %46
  %indvars.iv = phi i64 [ 0, %.lr.ph ], [ %indvars.iv.next, %46 ]
  %10 = load ptr, ptr %8, align 8
  %11 = getelementptr inbounds nuw %struct.trigger_info, ptr %10, i64 %indvars.iv
  %12 = load i16, ptr %11, align 8
  tail call void @pack16(i16 noundef zeroext %12, ptr noundef %1) #7
  %13 = load ptr, ptr %8, align 8
  %14 = getelementptr inbounds nuw %struct.trigger_info, ptr %13, i64 %indvars.iv, i32 1
  %15 = load i32, ptr %14, align 4
  tail call void @pack32(i32 noundef %15, ptr noundef %1) #7
  %16 = load ptr, ptr %8, align 8
  %17 = getelementptr inbounds nuw %struct.trigger_info, ptr %16, i64 %indvars.iv, i32 2
  %18 = load i16, ptr %17, align 8
  tail call void @pack16(i16 noundef zeroext %18, ptr noundef %1) #7
  %19 = load ptr, ptr %8, align 8
  %20 = getelementptr inbounds nuw %struct.trigger_info, ptr %19, i64 %indvars.iv, i32 3
  %21 = load ptr, ptr %20, align 8
  %.not = icmp eq ptr %21, null
  br i1 %.not, label %26, label %22

22:                                               ; preds = %9
  %23 = tail call i64 @strlen(ptr noundef nonnull dereferenceable(1) %21) #8
  %24 = trunc i64 %23 to i32
  %25 = add i32 %24, 1
  br label %26

26:                                               ; preds = %22, %9
  %.042 = phi i32 [ %25, %22 ], [ 0, %9 ]
  tail call void @packmem(ptr noundef %21, i32 noundef %.042, ptr noundef %1) #7
  %27 = load ptr, ptr %8, align 8
  %28 = getelementptr inbounds nuw %struct.trigger_info, ptr %27, i64 %indvars.iv, i32 5
  %29 = load i32, ptr %28, align 4
  tail call void @pack32(i32 noundef %29, ptr noundef %1) #7
  %30 = load ptr, ptr %8, align 8
  %31 = getelementptr inbounds nuw %struct.trigger_info, ptr %30, i64 %indvars.iv, i32 4
  %32 = load i32, ptr %31, align 8
  tail call void @pack32(i32 noundef %32, ptr noundef %1) #7
  %33 = load ptr, ptr %8, align 8
  %34 = getelementptr inbounds nuw %struct.trigger_info, ptr %33, i64 %indvars.iv, i32 6
  %35 = load i16, ptr %34, align 8
  tail call void @pack16(i16 noundef zeroext %35, ptr noundef %1) #7
  %36 = load ptr, ptr %8, align 8
  %37 = getelementptr inbounds nuw %struct.trigger_info, ptr %36, i64 %indvars.iv, i32 7
  %38 = load i32, ptr %37, align 4
  tail call void @pack32(i32 noundef %38, ptr noundef %1) #7
  %39 = load ptr, ptr %8, align 8
  %40 = getelementptr inbounds nuw %struct.trigger_info, ptr %39, i64 %indvars.iv, i32 8
  %41 = load ptr, ptr %40, align 8
  %.not46 = icmp eq ptr %41, null
  br i1 %.not46, label %46, label %42

42:                                               ; preds = %26
  %43 = tail call i64 @strlen(ptr noundef nonnull dereferenceable(1) %41) #8
  %44 = trunc i64 %43 to i32
  %45 = add i32 %44, 1
  br label %46

46:                                               ; preds = %42, %26
  %.0 = phi i32 [ %45, %42 ], [ 0, %26 ]
  tail call void @packmem(ptr noundef %41, i32 noundef %.0, ptr noundef %1) #7
  %indvars.iv.next = add nuw nsw i64 %indvars.iv, 1
  %47 = load i32, ptr %0, align 8
  %48 = zext i32 %47 to i64
  %49 = icmp samesign ult i64 %indvars.iv.next, %48
  br i1 %49, label %9, label %.loopexit, !llvm.loop !54

.loopexit:                                        ; preds = %46, %5, %3
  ret void
}